target datalayout = "e-m:e-p270:32:32-p271:32:32-p272:64:64-i64:64-i128:128-f80:128-n8:16:32:64-S128"
target triple = "x86_64-unknown-linux-gnu"

%struct.__sigset_t = type { [16 x i64] }
%struct.CPUState = type { %struct.DeviceState, ptr, i32, i32, ptr, i32, i8, i8, ptr, i8, i8, i8, i8, i8, i8, i8, i8, i32, i32, i32, i32, i64, i64, i64, [1 x %struct.__jmp_buf_tag], %struct.QemuMutex, %struct.anon, ptr, i32, ptr, ptr, ptr, ptr, i32, i32, %union.anon, %union.anon.0, %union.anon.1, ptr, ptr, i64, i32, ptr, ptr, ptr, i32, i64, i32, %struct.QemuLockCnt, [1 x i64], ptr, i32, i32, i32, i32, i32, ptr, i8, i8, i64, i8, i8, ptr, [8 x i8], [0 x i8], %struct.CPUNegativeOffsetState }
%struct.DeviceState = type { %struct.Object, ptr, ptr, i8, i8, i64, ptr, i32, i8, ptr, %struct.NamedGPIOListHead, %struct.NamedClockListHead, %struct.BusStateHead, i32, i32, i32, %struct.ResettableState, ptr, %struct.MemReentrancyGuard }
%struct.Object = type { ptr, ptr, ptr, i32, ptr }
%struct.NamedGPIOListHead = type { ptr }
%struct.NamedClockListHead = type { ptr }
%struct.BusStateHead = type { ptr }
%struct.ResettableState = type { i32, i8, i8 }
%struct.MemReentrancyGuard = type { i8 }
%struct.__jmp_buf_tag = type { [8 x i64], i32, %struct.__sigset_t }
%struct.QemuMutex = type { %union.pthread_mutex_t, i8 }
%union.pthread_mutex_t = type { %struct.__pthread_mutex_s }
%struct.__pthread_mutex_s = type { i32, i32, i32, i32, i32, i16, i16, %struct.__pthread_internal_list }
%struct.__pthread_internal_list = type { ptr, ptr }
%struct.anon = type { ptr, ptr }
%union.anon = type { %struct.QTailQLink }
%struct.QTailQLink = type { ptr, ptr }
%union.anon.0 = type { %struct.QTailQLink }
%union.anon.1 = type { %struct.QTailQLink }
%struct.QemuLockCnt = type { i32 }
%struct.CPUNegativeOffsetState = type { %struct.CPUTLB, %union.IcountDecr, i8, [11 x i8] }
%struct.CPUTLB = type { %struct.CPUTLBCommon, [16 x %struct.CPUTLBDesc], [16 x %struct.CPUTLBDescFast] }
%struct.CPUTLBCommon = type { %struct.QemuSpin, i16, i64, i64, i64 }
%struct.QemuSpin = type { i32 }
%struct.CPUTLBDesc = type { i64, i64, i64, i64, i64, i64, [8 x %union.CPUTLBEntry], [8 x %struct.CPUTLBEntryFull], ptr }
%union.CPUTLBEntry = type { %struct.anon.2 }
%struct.anon.2 = type { i64, i64, i64, i64 }
%struct.CPUTLBEntryFull = type { i64, i64, %struct.MemTxAttrs, i8, i8, [3 x i8], %union.anon.3 }
%struct.MemTxAttrs = type { i32 }
%union.anon.3 = type { %struct.anon.4 }
%struct.anon.4 = type { i8, i8, i8 }
%struct.CPUTLBDescFast = type { i64, ptr }
%union.IcountDecr = type { i32 }
%struct.TaskState = type { i32, i32, i64, i64, i64, i64, i32, ptr, ptr, %struct.emulated_sigtable, [64 x %struct.emulated_sigtable], %struct.__sigset_t, %struct.__sigset_t, i32, i32, %struct.target_sigaltstack, i64 }
%struct.emulated_sigtable = type { i32, %struct.target_siginfo }
%struct.target_siginfo = type { i32, i32, i32, %union.anon.6 }
%union.anon.6 = type { %struct.anon.10, [80 x i8] }
%struct.anon.10 = type { i32, i32, i32, i64, i64 }
%struct.target_sigaltstack = type { i64, i32, i64 }
%struct.timeval = type { i64, i64 }

@.str = private unnamed_addr constant [28 x i8] c"../qemu/linux-user/signal.c\00", align 1
@__func__.queue_signal = private unnamed_addr constant [13 x i8] c"queue_signal\00", align 1
@.str.3 = private unnamed_addr constant [49 x i8] c"start >= 0 && length > 0 && length <= 32 - start\00", align 1
@.str.4 = private unnamed_addr constant [100 x i8] c"/home/dtcxzyw/WorkSpace/Projects/compilers/llvm-opt-benchmark/bench/qemu/qemu/include/qemu/bitops.h\00", align 1
@trace_events_enabled_count = external global i32, align 4
@message_with_timestamp = external global i8, align 1
@_TRACE_USER_QUEUE_SIGNAL_DSTATE = external global i16, align 2
@.str.10 = private unnamed_addr constant [49 x i8] c"%d@%zu.%06zu:user_queue_signal env=%p signal %d\0A\00", align 1
@.str.11 = private unnamed_addr constant [36 x i8] c"user_queue_signal env=%p signal %d\0A\00", align 1
@__PRETTY_FUNCTION__.deposit32 = private unnamed_addr constant [49 x i8] c"uint32_t deposit32(uint32_t, int, int, uint32_t)\00", align 1
@qemu_loglevel = external global i32, align 4

; Function Attrs: nounwind sspstrong uwtable
define internal zeroext i1 @qemu_loglevel_mask(i32 noundef %mask) #0 {
entry:
  %mask.addr = alloca i32, align 4
  store i32 %mask, ptr %mask.addr, align 4
  %0 = load i32, ptr @qemu_loglevel, align 4
  %1 = load i32, ptr %mask.addr, align 4
  %and = and i32 %0, %1
  %cmp = icmp ne i32 %and, 0
  ret i1 %cmp
}

; Function Attrs: nounwind sspstrong uwtable
define internal void @_nocheck__trace_user_queue_signal(ptr noundef %env, i32 noundef %target_sig) #0 {
entry:
  %env.addr = alloca ptr, align 8
  %target_sig.addr = alloca i32, align 4
  %_now = alloca %struct.timeval, align 8
  store ptr %env, ptr %env.addr, align 8
  store i32 %target_sig, ptr %target_sig.addr, align 4
  %0 = load i32, ptr @trace_events_enabled_count, align 4
  %tobool = icmp ne i32 %0, 0
  %lnot = xor i1 %tobool, true
  %lnot1 = xor i1 %lnot, true
  %lnot.ext = zext i1 %lnot1 to i32
  %conv = sext i32 %lnot.ext to i64
  %tobool2 = icmp ne i64 %conv, 0
  br i1 %tobool2, label %land.lhs.true, label %if.end11

land.lhs.true:                                    ; preds = %entry
  %1 = load i16, ptr @_TRACE_USER_QUEUE_SIGNAL_DSTATE, align 2
  %conv3 = zext i16 %1 to i32
  %tobool4 = icmp ne i32 %conv3, 0
  br i1 %tobool4, label %land.lhs.true5, label %if.end11

land.lhs.true5:                                   ; preds = %land.lhs.true
  %call = call zeroext i1 @qemu_loglevel_mask(i32 noundef 32768)
  br i1 %call, label %if.then, label %if.end11

if.then:                                          ; preds = %land.lhs.true5
  %2 = load i8, ptr @message_with_timestamp, align 1
  %tobool7 = trunc i8 %2 to i1
  br i1 %tobool7, label %if.then8, label %if.else

if.then8:                                         ; preds = %if.then
  %call9 = call i32 @gettimeofday(ptr noundef %_now, ptr noundef null) #9
  %call10 = call i32 @qemu_get_thread_id()
  %tv_sec = getelementptr inbounds %struct.timeval, ptr %_now, i32 0, i32 0
  %3 = load i64, ptr %tv_sec, align 8
  %tv_usec = getelementptr inbounds %struct.timeval, ptr %_now, i32 0, i32 1
  %4 = load i64, ptr %tv_usec, align 8
  %5 = load ptr, ptr %env.addr, align 8
  %6 = load i32, ptr %target_sig.addr, align 4
  call void (ptr, ...) @qemu_log(ptr noundef @.str.10, i32 noundef %call10, i64 noundef %3, i64 noundef %4, ptr noundef %5, i32 noundef %6)
  br label %if.end

if.else:                                          ; preds = %if.then
  %7 = load ptr, ptr %env.addr, align 8
  %8 = load i32, ptr %target_sig.addr, align 4
  call void (ptr, ...) @qemu_log(ptr noundef @.str.11, ptr noundef %7, i32 noundef %8)
  br label %if.end

if.end:                                           ; preds = %if.else, %if.then8
  br label %if.end11

if.end11:                                         ; preds = %if.end, %land.lhs.true5, %land.lhs.true, %entry
  ret void
}

; Function Attrs: nounwind sspstrong uwtable
define internal i32 @deposit32(i32 noundef %value, i32 noundef %start, i32 noundef %length, i32 noundef %fieldval) #0 {
entry:
  %value.addr = alloca i32, align 4
  %start.addr = alloca i32, align 4
  %length.addr = alloca i32, align 4
  %fieldval.addr = alloca i32, align 4
  %mask = alloca i32, align 4
  store i32 %value, ptr %value.addr, align 4
  store i32 %start, ptr %start.addr, align 4
  store i32 %length, ptr %length.addr, align 4
  store i32 %fieldval, ptr %fieldval.addr, align 4
  %0 = load i32, ptr %start.addr, align 4
  %cmp = icmp sge i32 %0, 0
  br i1 %cmp, label %land.lhs.true, label %if.else

land.lhs.true:                                    ; preds = %entry
  %1 = load i32, ptr %length.addr, align 4
  %cmp1 = icmp sgt i32 %1, 0
  br i1 %cmp1, label %land.lhs.true2, label %if.else

land.lhs.true2:                                   ; preds = %land.lhs.true
  %2 = load i32, ptr %length.addr, align 4
  %3 = load i32, ptr %start.addr, align 4
  %sub = sub i32 32, %3
  %cmp3 = icmp sle i32 %2, %sub
  br i1 %cmp3, label %if.then, label %if.else

if.then:                                          ; preds = %land.lhs.true2
  br label %if.end

if.else:                                          ; preds = %land.lhs.true2, %land.lhs.true, %entry
  call void @__assert_fail(ptr noundef @.str.3, ptr noundef @.str.4, i32 noundef 470, ptr noundef @__PRETTY_FUNCTION__.deposit32) #11
  unreachable

if.end:                                           ; preds = %if.then
  %4 = load i32, ptr %length.addr, align 4
  %sub4 = sub i32 32, %4
  %shr = lshr i32 -1, %sub4
  %5 = load i32, ptr %start.addr, align 4
  %shl = shl i32 %shr, %5
  store i32 %shl, ptr %mask, align 4
  %6 = load i32, ptr %value.addr, align 4
  %7 = load i32, ptr %mask, align 4
  %not = xor i32 %7, -1
  %and = and i32 %6, %not
  %8 = load i32, ptr %fieldval.addr, align 4
  %9 = load i32, ptr %start.addr, align 4
  %shl5 = shl i32 %8, %9
  %10 = load i32, ptr %mask, align 4
  %and6 = and i32 %shl5, %10
  %or = or i32 %and, %and6
  ret i32 %or
}

; Function Attrs: nounwind sspstrong uwtable
define internal void @trace_user_queue_signal(ptr noundef %env, i32 noundef %target_sig) #0 {
entry:
  %env.addr = alloca ptr, align 8
  %target_sig.addr = alloca i32, align 4
  store ptr %env, ptr %env.addr, align 8
  store i32 %target_sig, ptr %target_sig.addr, align 4
  %0 = load ptr, ptr %env.addr, align 8
  %1 = load i32, ptr %target_sig.addr, align 4
  call void @_nocheck__trace_user_queue_signal(ptr noundef %0, i32 noundef %1)
  ret void
}

; Function Attrs: nounwind sspstrong uwtable
define internal ptr @env_cpu(ptr noundef %env) #0 {
entry:
  %env.addr = alloca ptr, align 8
  store ptr %env, ptr %env.addr, align 8
  %0 = load ptr, ptr %env.addr, align 8
  %add.ptr = getelementptr i8, ptr %0, i64 -10176
  ret ptr %add.ptr
}

; Function Attrs: nounwind sspstrong uwtable
define dso_local void @queue_signal(ptr noundef %env, i32 noundef %sig, i32 noundef %si_type, ptr noundef %info) #0 {
entry:
  %env.addr = alloca ptr, align 8
  %sig.addr = alloca i32, align 4
  %si_type.addr = alloca i32, align 4
  %info.addr = alloca ptr, align 8
  %cpu = alloca ptr, align 8
  %ts = alloca ptr, align 8
  %.atomictmp = alloca i32, align 4
  store ptr %env, ptr %env.addr, align 8
  store i32 %sig, ptr %sig.addr, align 4
  store i32 %si_type, ptr %si_type.addr, align 4
  store ptr %info, ptr %info.addr, align 8
  %0 = load ptr, ptr %env.addr, align 8
  %call = call ptr @env_cpu(ptr noundef %0)
  store ptr %call, ptr %cpu, align 8
  %1 = load ptr, ptr %cpu, align 8
  %opaque = getelementptr inbounds %struct.CPUState, ptr %1, i32 0, i32 39
  %2 = load ptr, ptr %opaque, align 16
  store ptr %2, ptr %ts, align 8
  %3 = load ptr, ptr %env.addr, align 8
  %4 = load i32, ptr %sig.addr, align 4
  call void @trace_user_queue_signal(ptr noundef %3, i32 noundef %4)
  %5 = load ptr, ptr %info.addr, align 8
  %si_code = getelementptr inbounds %struct.target_siginfo, ptr %5, i32 0, i32 2
  %6 = load i32, ptr %si_code, align 8
  %7 = load i32, ptr %si_type.addr, align 4
  %call1 = call i32 @deposit32(i32 noundef %6, i32 noundef 16, i32 noundef 16, i32 noundef %7)
  %8 = load ptr, ptr %info.addr, align 8
  %si_code2 = getelementptr inbounds %struct.target_siginfo, ptr %8, i32 0, i32 2
  store i32 %call1, ptr %si_code2, align 8
  %9 = load ptr, ptr %ts, align 8
  %sync_signal = getelementptr inbounds %struct.TaskState, ptr %9, i32 0, i32 9
  %info3 = getelementptr inbounds %struct.emulated_sigtable, ptr %sync_signal, i32 0, i32 1
  %10 = load ptr, ptr %info.addr, align 8
  call void @llvm.memcpy.p0.p0.i64(ptr align 8 %info3, ptr align 8 %10, i64 128, i1 false)
  %11 = load i32, ptr %sig.addr, align 4
  %12 = load ptr, ptr %ts, align 8
  %sync_signal4 = getelementptr inbounds %struct.TaskState, ptr %12, i32 0, i32 9
  %pending = getelementptr inbounds %struct.emulated_sigtable, ptr %sync_signal4, i32 0, i32 0
  store i32 %11, ptr %pending, align 8
  br label %do.body

do.body:                                          ; preds = %entry
  br label %while.cond

while.cond:                                       ; preds = %do.end, %do.body
  br i1 false, label %while.body, label %while.end

while.body:                                       ; preds = %while.cond
  br label %do.body5

do.body5:                                         ; preds = %while.body
  call void @g_assertion_message_expr(ptr noundef null, ptr noundef @.str, i32 noundef 781, ptr noundef @__func__.queue_signal, ptr noundef null) #10
  unreachable

do.end:                                           ; No predecessors!
  br label %while.cond

while.end:                                        ; preds = %while.cond
  %13 = load ptr, ptr %ts, align 8
  %signal_pending = getelementptr inbounds %struct.TaskState, ptr %13, i32 0, i32 14
  store i32 1, ptr %.atomictmp, align 4
  %14 = load i32, ptr %.atomictmp, align 4
  store atomic i32 %14, ptr %signal_pending monotonic, align 4
  br label %do.end6

do.end6:                                          ; preds = %while.end
  ret void
}