; Function Attrs: nounwind sspstrong uwtable
define dso_local void @queue_signal(ptr noundef %env, i32 noundef %sig, i32 noundef %si_type, ptr noundef captures(none) %info) local_unnamed_addr #1 {
entry:
  %_now.i.i = alloca %struct.timeval, align 8
  %opaque = getelementptr i8, ptr %env, i64 -9552
  %0 = load ptr, ptr %opaque, align 16
  call void @llvm.lifetime.start.p0(i64 16, ptr nonnull %_now.i.i)
  %1 = load i32, ptr @trace_events_enabled_count, align 4
  %tobool.i.i = icmp ne i32 %1, 0
  %2 = load i16, ptr @_TRACE_USER_QUEUE_SIGNAL_DSTATE, align 2
  %tobool4.i.i = icmp ne i16 %2, 0
  %or.cond.i.i = select i1 %tobool.i.i, i1 %tobool4.i.i, i1 false
  br i1 %or.cond.i.i, label %land.lhs.true5.i.i, label %trace_user_queue_signal.exit

land.lhs.true5.i.i:                               ; preds = %entry
  %3 = load i32, ptr @qemu_loglevel, align 4
  %and.i.i.i = and i32 %3, 32768
  %cmp.i.not.i.i = icmp eq i32 %and.i.i.i, 0
  br i1 %cmp.i.not.i.i, label %trace_user_queue_signal.exit, label %if.then.i.i

if.then.i.i:                                      ; preds = %land.lhs.true5.i.i
  %4 = load i8, ptr @message_with_timestamp, align 1
  %tobool7.i.i = trunc i8 %4 to i1
  br i1 %tobool7.i.i, label %if.then8.i.i, label %if.else.i.i

if.then8.i.i:                                     ; preds = %if.then.i.i
  %call9.i.i = call i32 @gettimeofday(ptr noundef nonnull %_now.i.i, ptr noundef null) #16
  %call10.i.i = tail call i32 @qemu_get_thread_id() #16
  %5 = load i64, ptr %_now.i.i, align 8
  %tv_usec.i.i = getelementptr inbounds nuw i8, ptr %_now.i.i, i64 8
  %6 = load i64, ptr %tv_usec.i.i, align 8
  tail call void (ptr, ...) @qemu_log(ptr noundef nonnull @.str.10, i32 noundef %call10.i.i, i64 noundef %5, i64 noundef %6, ptr noundef nonnull %env, i32 noundef %sig) #16
  br label %trace_user_queue_signal.exit

if.else.i.i:                                      ; preds = %if.then.i.i
  tail call void (ptr, ...) @qemu_log(ptr noundef nonnull @.str.11, ptr noundef nonnull %env, i32 noundef %sig) #16
  br label %trace_user_queue_signal.exit

trace_user_queue_signal.exit:                     ; preds = %entry, %land.lhs.true5.i.i, %if.then8.i.i, %if.else.i.i
  call void @llvm.lifetime.end.p0(i64 16, ptr nonnull %_now.i.i)
  %si_code = getelementptr inbounds nuw i8, ptr %info, i64 8
  %7 = load i32, ptr %si_code, align 8
  %and.i = and i32 %7, 65535
  %shl5.i = shl i32 %si_type, 16
  %or.i = or disjoint i32 %and.i, %shl5.i
  store i32 %or.i, ptr %si_code, align 8
  %sync_signal = getelementptr inbounds nuw i8, ptr %0, i64 64
  %info3 = getelementptr inbounds nuw i8, ptr %0, i64 72
  tail call void @llvm.memcpy.p0.p0.i64(ptr noundef nonnull align 8 dereferenceable(128) %info3, ptr noundef nonnull align 8 dereferenceable(128) %info, i64 128, i1 false)
  store i32 %sig, ptr %sync_signal, align 8
  %signal_pending = getelementptr inbounds nuw i8, ptr %0, i64 9164
  store atomic i32 1, ptr %signal_pending monotonic, align 4
  ret void
}